target datalayout = "e-m:e-p270:32:32-p271:32:32-p272:64:64-i64:64-i128:128-f80:128-n8:16:32:64-S128"
target triple = "x86_64-unknown-linux-gnu"

%class.btVector3 = type { [4 x float] }
%struct.btDbvt = type { ptr, ptr, i32, i32, i32, [4 x i8], %class.btAlignedObjectArray }
%class.btAlignedObjectArray = type <{ %class.btAlignedAllocator, [3 x i8], i32, i32, [4 x i8], ptr, i8, [7 x i8] }>
%class.btAlignedAllocator = type { i8 }
%struct.btDbvtNode = type { %struct.btDbvtAabbMm, ptr, %union.anon.4 }
%struct.btDbvtAabbMm = type { %class.btVector3, %class.btVector3 }
%union.anon.4 = type { [2 x ptr] }

; Function Attrs: mustprogress uwtable
define internal void @_ZL10deletenodeP6btDbvtP10btDbvtNode(ptr noundef %pdbvt, ptr noundef %node) #2 {
entry:
  %pdbvt.addr = alloca ptr, align 8
  %node.addr = alloca ptr, align 8
  store ptr %pdbvt, ptr %pdbvt.addr, align 8
  store ptr %node, ptr %node.addr, align 8
  %0 = load ptr, ptr %pdbvt.addr, align 8
  %m_free = getelementptr inbounds %struct.btDbvt, ptr %0, i32 0, i32 1
  %1 = load ptr, ptr %m_free, align 8
  call void @_Z21btAlignedFreeInternalPv(ptr noundef %1)
  %2 = load ptr, ptr %node.addr, align 8
  %3 = load ptr, ptr %pdbvt.addr, align 8
  %m_free1 = getelementptr inbounds %struct.btDbvt, ptr %3, i32 0, i32 1
  store ptr %2, ptr %m_free1, align 8
  ret void
}

; Function Attrs: mustprogress nounwind uwtable
define linkonce_odr dso_local noundef zeroext i1 @_ZNK10btDbvtNode6isleafEv(ptr noundef nonnull align 8 dereferenceable(56) %this) #1 comdat align 2 {
entry:
  %this.addr = alloca ptr, align 8
  store ptr %this, ptr %this.addr, align 8
  %this1 = load ptr, ptr %this.addr, align 8
  %0 = getelementptr inbounds %struct.btDbvtNode, ptr %this1, i32 0, i32 2
  %arrayidx = getelementptr inbounds [2 x ptr], ptr %0, i64 0, i64 1
  %1 = load ptr, ptr %arrayidx, align 8
  %cmp = icmp eq ptr %1, null
  ret i1 %cmp
}

; Function Attrs: mustprogress uwtable
define internal void @_ZL17recursedeletenodeP6btDbvtP10btDbvtNode(ptr noundef %pdbvt, ptr noundef %node) #2 {
entry:
  %pdbvt.addr = alloca ptr, align 8
  %node.addr = alloca ptr, align 8
  store ptr %pdbvt, ptr %pdbvt.addr, align 8
  store ptr %node, ptr %node.addr, align 8
  %0 = load ptr, ptr %node.addr, align 8
  %cmp = icmp eq ptr %0, null
  br i1 %cmp, label %if.then, label %if.end

if.then:                                          ; preds = %entry
  br label %return

if.end:                                           ; preds = %entry
  %1 = load ptr, ptr %node.addr, align 8
  %call = call noundef zeroext i1 @_ZNK10btDbvtNode6isleafEv(ptr noundef nonnull align 8 dereferenceable(56) %1)
  br i1 %call, label %if.end3, label %if.then1

if.then1:                                         ; preds = %if.end
  %2 = load ptr, ptr %pdbvt.addr, align 8
  %3 = load ptr, ptr %node.addr, align 8
  %4 = getelementptr inbounds %struct.btDbvtNode, ptr %3, i32 0, i32 2
  %arrayidx = getelementptr inbounds [2 x ptr], ptr %4, i64 0, i64 0
  %5 = load ptr, ptr %arrayidx, align 8
  call void @_ZL17recursedeletenodeP6btDbvtP10btDbvtNode(ptr noundef %2, ptr noundef %5)
  %6 = load ptr, ptr %pdbvt.addr, align 8
  %7 = load ptr, ptr %node.addr, align 8
  %8 = getelementptr inbounds %struct.btDbvtNode, ptr %7, i32 0, i32 2
  %arrayidx2 = getelementptr inbounds [2 x ptr], ptr %8, i64 0, i64 1
  %9 = load ptr, ptr %arrayidx2, align 8
  call void @_ZL17recursedeletenodeP6btDbvtP10btDbvtNode(ptr noundef %6, ptr noundef %9)
  br label %if.end3

if.end3:                                          ; preds = %if.then1, %if.end
  %10 = load ptr, ptr %node.addr, align 8
  %11 = load ptr, ptr %pdbvt.addr, align 8
  %m_root = getelementptr inbounds %struct.btDbvt, ptr %11, i32 0, i32 0
  %12 = load ptr, ptr %m_root, align 8
  %cmp4 = icmp eq ptr %10, %12
  br i1 %cmp4, label %if.then5, label %if.end7

if.then5:                                         ; preds = %if.end3
  %13 = load ptr, ptr %pdbvt.addr, align 8
  %m_root6 = getelementptr inbounds %struct.btDbvt, ptr %13, i32 0, i32 0
  store ptr null, ptr %m_root6, align 8
  br label %if.end7

if.end7:                                          ; preds = %if.then5, %if.end3
  %14 = load ptr, ptr %pdbvt.addr, align 8
  %15 = load ptr, ptr %node.addr, align 8
  call void @_ZL10deletenodeP6btDbvtP10btDbvtNode(ptr noundef %14, ptr noundef %15)
  br label %return

return:                                           ; preds = %if.end7, %if.then
  ret void
}