; Function Attrs: mustprogress uwtable
define internal fastcc void @_ZL17recursedeletenodeP6btDbvtP10btDbvtNode(ptr noundef %pdbvt, ptr noundef %node) unnamed_addr #2 {
entry:
  %cmp = icmp eq ptr %node, null
  br i1 %cmp, label %return, label %if.end

if.end:                                           ; preds = %entry
  %arrayidx.i = getelementptr inbounds i8, ptr %node, i64 48
  %0 = load ptr, ptr %arrayidx.i, align 8
  %cmp.i = icmp eq ptr %0, null
  br i1 %cmp.i, label %if.end3, label %if.then1

if.then1:                                         ; preds = %if.end
  %1 = getelementptr inbounds i8, ptr %node, i64 40
  %2 = load ptr, ptr %1, align 8
  tail call fastcc void @_ZL17recursedeletenodeP6btDbvtP10btDbvtNode(ptr noundef %pdbvt, ptr noundef %2)
  %3 = load ptr, ptr %arrayidx.i, align 8
  tail call fastcc void @_ZL17recursedeletenodeP6btDbvtP10btDbvtNode(ptr noundef %pdbvt, ptr noundef %3)
  br label %if.end3

if.end3:                                          ; preds = %if.then1, %if.end
  %4 = load ptr, ptr %pdbvt, align 8
  %cmp4 = icmp eq ptr %4, %node
  br i1 %cmp4, label %if.then5, label %if.end7

if.then5:                                         ; preds = %if.end3
  store ptr null, ptr %pdbvt, align 8
  br label %if.end7

if.end7:                                          ; preds = %if.then5, %if.end3
  %m_free.i = getelementptr inbounds i8, ptr %pdbvt, i64 8
  %5 = load ptr, ptr %m_free.i, align 8
  tail call void @_Z21btAlignedFreeInternalPv(ptr noundef %5)
  store ptr %node, ptr %m_free.i, align 8
  br label %return

return:                                           ; preds = %entry, %if.end7
  ret void
}